target datalayout = "e-m:e-p270:32:32-p271:32:32-p272:64:64-i64:64-i128:128-f80:128-n8:16:32:64-S128"
target triple = "x86_64-pc-linux-gnu"

%struct.completion_spec = type { ptr, ptr }

@.str.181 = private unnamed_addr constant [2 x i8] c"\0A\00", align 1

; Function Attrs: nounwind uwtable
define ptr @dt_gtkentry_build_completion_tooltip_text(ptr noundef %0, ptr noundef %1) #0 {
  %3 = alloca ptr, align 8
  %4 = alloca ptr, align 8
  %5 = alloca i64, align 8
  %6 = alloca ptr, align 8
  %7 = alloca ptr, align 8
  %8 = alloca ptr, align 8
  %9 = alloca ptr, align 8
  %10 = alloca ptr, align 8
  store ptr %0, ptr %3, align 8, !tbaa !28
  store ptr %1, ptr %4, align 8, !tbaa !11
  call void @llvm.lifetime.start.p0(i64 8, ptr %5) #9
  store i64 0, ptr %5, align 8, !tbaa !31
  call void @llvm.lifetime.start.p0(i64 8, ptr %6) #9
  %11 = load ptr, ptr %4, align 8, !tbaa !11
  store ptr %11, ptr %6, align 8, !tbaa !11
  br label %12

12:                                               ; preds = %21, %2
  %13 = load ptr, ptr %6, align 8, !tbaa !11
  %14 = getelementptr inbounds nuw %struct.completion_spec, ptr %13, i32 0, i32 1
  %15 = load ptr, ptr %14, align 8, !tbaa !20
  %16 = icmp ne ptr %15, null
  br i1 %16, label %18, label %17

17:                                               ; preds = %12
  call void @llvm.lifetime.end.p0(i64 8, ptr %6) #9
  br label %24

18:                                               ; preds = %12
  %19 = load i64, ptr %5, align 8, !tbaa !31
  %20 = add i64 %19, 1
  store i64 %20, ptr %5, align 8, !tbaa !31
  br label %21

21:                                               ; preds = %18
  %22 = load ptr, ptr %6, align 8, !tbaa !11
  %23 = getelementptr inbounds nuw %struct.completion_spec, ptr %22, i32 1
  store ptr %23, ptr %6, align 8, !tbaa !11
  br label %12

24:                                               ; preds = %17
  call void @llvm.lifetime.start.p0(i64 8, ptr %7) #9
  %25 = load i64, ptr %5, align 8, !tbaa !31
  %26 = add i64 %25, 2
  %27 = mul i64 8, %26
  %28 = call noalias ptr @malloc(i64 noundef %27) #13
  store ptr %28, ptr %7, align 8, !tbaa !33
  call void @llvm.lifetime.start.p0(i64 8, ptr %8) #9
  %29 = load ptr, ptr %7, align 8, !tbaa !33
  store ptr %29, ptr %8, align 8, !tbaa !33
  %30 = load ptr, ptr %3, align 8, !tbaa !28
  %31 = load ptr, ptr %8, align 8, !tbaa !33
  %32 = getelementptr inbounds nuw ptr, ptr %31, i32 1
  store ptr %32, ptr %8, align 8, !tbaa !33
  store ptr %30, ptr %31, align 8, !tbaa !28
  call void @llvm.lifetime.start.p0(i64 8, ptr %9) #9
  %33 = load ptr, ptr %4, align 8, !tbaa !11
  store ptr %33, ptr %9, align 8, !tbaa !11
  br label %34

34:                                               ; preds = %46, %24
  %35 = load ptr, ptr %9, align 8, !tbaa !11
  %36 = getelementptr inbounds nuw %struct.completion_spec, ptr %35, i32 0, i32 1
  %37 = load ptr, ptr %36, align 8, !tbaa !20
  %38 = icmp ne ptr %37, null
  br i1 %38, label %40, label %39

39:                                               ; preds = %34
  call void @llvm.lifetime.end.p0(i64 8, ptr %9) #9
  br label %51

40:                                               ; preds = %34
  %41 = load ptr, ptr %9, align 8, !tbaa !11
  %42 = getelementptr inbounds nuw %struct.completion_spec, ptr %41, i32 0, i32 1
  %43 = load ptr, ptr %42, align 8, !tbaa !20
  %44 = call ptr @dcgettext(ptr noundef null, ptr noundef %43, i32 noundef 5) #9
  %45 = load ptr, ptr %8, align 8, !tbaa !33
  store ptr %44, ptr %45, align 8, !tbaa !28
  br label %46

46:                                               ; preds = %40
  %47 = load ptr, ptr %9, align 8, !tbaa !11
  %48 = getelementptr inbounds nuw %struct.completion_spec, ptr %47, i32 1
  store ptr %48, ptr %9, align 8, !tbaa !11
  %49 = load ptr, ptr %8, align 8, !tbaa !33
  %50 = getelementptr inbounds nuw ptr, ptr %49, i32 1
  store ptr %50, ptr %8, align 8, !tbaa !33
  br label %34

51:                                               ; preds = %39
  %52 = load ptr, ptr %8, align 8, !tbaa !33
  store ptr null, ptr %52, align 8, !tbaa !28
  call void @llvm.lifetime.start.p0(i64 8, ptr %10) #9
  %53 = load ptr, ptr %7, align 8, !tbaa !33
  %54 = call noalias ptr @g_strjoinv(ptr noundef @.str.181, ptr noundef %53)
  store ptr %54, ptr %10, align 8, !tbaa !28
  %55 = load ptr, ptr %7, align 8, !tbaa !33
  call void @free(ptr noundef %55) #9
  %56 = load ptr, ptr %10, align 8, !tbaa !28
  call void @llvm.lifetime.end.p0(i64 8, ptr %10) #9
  call void @llvm.lifetime.end.p0(i64 8, ptr %8) #9
  call void @llvm.lifetime.end.p0(i64 8, ptr %7) #9
  call void @llvm.lifetime.end.p0(i64 8, ptr %5) #9
  ret ptr %56
}