; Function Attrs: nounwind uwtable
define noalias ptr @dt_gtkentry_build_completion_tooltip_text(ptr noundef %0, ptr noundef readonly captures(none) %1) local_unnamed_addr #0 {
  %3 = getelementptr inbounds nuw i8, ptr %1, i64 8
  %4 = load ptr, ptr %3, align 8, !tbaa !12
  %.not22 = icmp eq ptr %4, null
  br i1 %.not22, label %._crit_edge.thread, label %.lr.ph

._crit_edge.thread:                               ; preds = %2
  %5 = tail call noalias dereferenceable_or_null(16) ptr @malloc(i64 noundef 16) #15
  store ptr %0, ptr %5, align 8, !tbaa !15
  %.0182535 = getelementptr inbounds nuw i8, ptr %5, i64 8
  br label %._crit_edge31

._crit_edge:                                      ; preds = %.lr.ph
  %6 = shl i64 %9, 3
  %7 = add i64 %6, 16
  %8 = tail call noalias ptr @malloc(i64 noundef %7) #15
  store ptr %0, ptr %8, align 8, !tbaa !15
  %.01825 = getelementptr inbounds nuw i8, ptr %8, i64 8
  br label %.lr.ph30

.lr.ph:                                           ; preds = %2, %.lr.ph
  %.024 = phi i64 [ %9, %.lr.ph ], [ 0, %2 ]
  %.01923 = phi ptr [ %10, %.lr.ph ], [ %1, %2 ]
  %9 = add i64 %.024, 1
  %10 = getelementptr inbounds nuw i8, ptr %.01923, i64 16
  %11 = getelementptr inbounds nuw i8, ptr %.01923, i64 24
  %12 = load ptr, ptr %11, align 8, !tbaa !12
  %.not = icmp eq ptr %12, null
  br i1 %.not, label %._crit_edge, label %.lr.ph

._crit_edge31:                                    ; preds = %.lr.ph30, %._crit_edge.thread
  %13 = phi ptr [ %5, %._crit_edge.thread ], [ %8, %.lr.ph30 ]
  %.018.lcssa = phi ptr [ %.0182535, %._crit_edge.thread ], [ %.018, %.lr.ph30 ]
  store ptr null, ptr %.018.lcssa, align 8, !tbaa !15
  %14 = tail call noalias ptr @g_strjoinv(ptr noundef nonnull @.str.181, ptr noundef nonnull %13) #12
  tail call void @free(ptr noundef %13) #12
  ret ptr %14

.lr.ph30:                                         ; preds = %._crit_edge, %.lr.ph30
  %15 = phi ptr [ %19, %.lr.ph30 ], [ %4, %._crit_edge ]
  %.01828 = phi ptr [ %.018, %.lr.ph30 ], [ %.01825, %._crit_edge ]
  %.01727 = phi ptr [ %17, %.lr.ph30 ], [ %1, %._crit_edge ]
  %16 = tail call ptr @dcgettext(ptr noundef null, ptr noundef nonnull %15, i32 noundef 5) #12
  store ptr %16, ptr %.01828, align 8, !tbaa !15
  %17 = getelementptr inbounds nuw i8, ptr %.01727, i64 16
  %.018 = getelementptr inbounds nuw i8, ptr %.01828, i64 8
  %18 = getelementptr inbounds nuw i8, ptr %.01727, i64 24
  %19 = load ptr, ptr %18, align 8, !tbaa !12
  %.not21 = icmp eq ptr %19, null
  br i1 %.not21, label %._crit_edge31, label %.lr.ph30
}